Certificate:
    Data:
        Version: 3 (0x2)
        Serial Number: 2 (0x2)
        Signature Algorithm: sha256WithRSAEncryption
        Issuer: C=CN, ST=Sichuan, L=Chengdu, O=Person, OU=Person, CN=Person CA/name=vpntink/emailAddress=tanzhengtang@163.com
        Validity
            Not Before: Apr 18 02:19:47 2020 GMT
            Not After : Apr 16 02:19:47 2030 GMT
        Subject: C=CN, ST=Sichuan, L=Chengdu, O=Person, OU=Person, CN=clinet/name=vpntink/emailAddress=tanzhengtang@163.com
        Subject Public Key Info:
            Public Key Algorithm: rsaEncryption
                RSA Public-Key: (2048 bit)
                Modulus:
                    00:e3:e2:72:dd:0e:68:9c:2f:17:0a:75:5a:67:da:
                    a8:60:17:a6:45:45:cc:ad:21:79:05:78:2d:60:4d:
                    ef:87:fb:db:cb:b4:70:49:9e:bf:c8:e8:2c:15:97:
                    d1:01:da:79:93:45:d8:8a:8c:85:95:96:70:c6:76:
                    d7:15:0d:68:37:e3:29:33:b9:87:ee:67:03:c1:6e:
                    69:98:28:47:16:f0:59:be:5b:d5:d3:3e:4a:80:9c:
                    53:16:0f:52:8c:1e:5f:60:0e:38:e8:d1:d0:3b:46:
                    4d:ba:09:bf:dc:5b:a0:8c:87:ef:ea:92:66:25:da:
                    11:86:d9:5e:18:03:48:a6:c3:96:74:f9:67:2a:a2:
                    0a:fc:f9:34:26:5a:f2:78:a0:4a:19:96:71:b5:95:
                    44:07:32:1d:59:3d:8a:73:f1:44:73:94:f3:7e:89:
                    09:87:d1:db:76:2d:15:ee:df:f2:6e:62:f7:65:bd:
                    60:a4:9d:6b:cf:1e:fb:eb:40:70:9e:f7:4d:2e:61:
                    77:33:5c:5e:26:90:be:39:8e:93:0f:f2:57:9a:9e:
                    f8:1c:93:54:55:68:60:b3:49:4c:dc:a2:7b:ec:5b:
                    4c:8e:a8:16:78:94:15:11:75:97:0f:75:91:91:fd:
                    73:6d:a3:a0:27:ef:82:71:e7:98:b2:dd:2d:47:16:
                    aa:43
                Exponent: 65537 (0x10001)
        X509v3 extensions:
            X509v3 Basic Constraints: 
                CA:FALSE
            Netscape Comment: 
                Easy-RSA Generated Certificate
            X509v3 Subject Key Identifier: 
                3C:F9:34:B9:C8:C5:3F:6D:E2:C2:A5:BA:36:BC:C8:F7:C7:DE:1B:20
            X509v3 Authority Key Identifier: 
                keyid:DE:9C:20:E8:7B:88:9B:5B:A3:70:C8:76:BC:27:17:A2:CB:56:D1:A2
                DirName:/C=CN/ST=Sichuan/L=Chengdu/O=Person/OU=Person/CN=Person CA/name=vpntink/emailAddress=tanzhengtang@163.com
                serial:62:C7:2D:77:81:40:FD:45:B5:F7:17:11:50:A7:35:EF:D6:C9:9E:61

            X509v3 Extended Key Usage: 
                TLS Web Client Authentication
            X509v3 Key Usage: 
                Digital Signature
            X509v3 Subject Alternative Name: 
                DNS:clinet
    Signature Algorithm: sha256WithRSAEncryption
         be:64:fd:8a:9d:10:67:58:97:2c:05:30:dd:52:af:0e:af:c7:
         09:59:68:b9:87:a5:89:85:42:b5:5c:43:fe:f9:06:5f:46:66:
         b7:f0:ad:35:2b:92:2d:09:23:a2:37:66:04:fc:25:a3:9e:a8:
         0c:05:ac:8a:65:be:a8:49:0e:4a:1b:81:5b:da:72:d4:82:1c:
         82:e2:9e:b1:92:59:75:64:ef:25:77:44:53:35:5c:b4:23:73:
         fa:ce:12:f9:4d:58:7a:f6:e1:d8:11:bf:a7:76:e3:09:4a:cd:
         c1:a4:e4:71:87:e1:a0:c1:89:ab:7e:65:38:c8:1b:26:bc:79:
         9c:64:6a:d5:f2:0b:e6:67:1f:6c:68:48:01:67:28:ae:39:10:
         fe:15:7f:aa:b3:e4:f8:35:33:98:3c:45:d6:7a:43:d4:fc:0e:
         f9:6d:01:14:8c:a2:e8:e4:1b:fb:d7:6d:8c:f4:e2:ee:c3:fa:
         e3:f7:af:49:54:ff:b0:b4:58:5b:71:d6:b4:6d:1e:76:47:f7:
         58:4c:be:6c:c4:4b:bb:be:fe:ea:15:82:3b:44:10:40:8a:0e:
         8c:b4:2a:f3:d3:c4:4a:c2:0e:2b:b3:4c:00:d0:cb:ea:12:33:
         4d:e2:e9:df:65:a8:20:07:24:23:74:a3:0c:0a:e6:15:a9:33:
         c2:5c:20:70
-----BEGIN CERTIFICATE-----
MIIFKzCCBBOgAwIBAgIBAjANBgkqhkiG9w0BAQsFADCBnjELMAkGA1UEBhMCQ04x
EDAOBgNVBAgTB1NpY2h1YW4xEDAOBgNVBAcTB0NoZW5nZHUxDzANBgNVBAoTBlBl
cnNvbjEPMA0GA1UECxMGUGVyc29uMRIwEAYDVQQDEwlQZXJzb24gQ0ExEDAOBgNV
BCkTB3ZwbnRpbmsxIzAhBgkqhkiG9w0BCQEWFHRhbnpoZW5ndGFuZ0AxNjMuY29t
MB4XDTIwMDQxODAyMTk0N1oXDTMwMDQxNjAyMTk0N1owgZsxCzAJBgNVBAYTAkNO
MRAwDgYDVQQIEwdTaWNodWFuMRAwDgYDVQQHEwdDaGVuZ2R1MQ8wDQYDVQQKEwZQ
ZXJzb24xDzANBgNVBAsTBlBlcnNvbjEPMA0GA1UEAxMGY2xpbmV0MRAwDgYDVQQp
Ewd2cG50aW5rMSMwIQYJKoZIhvcNAQkBFhR0YW56aGVuZ3RhbmdAMTYzLmNvbTCC
ASIwDQYJKoZIhvcNAQEBBQADggEPADCCAQoCggEBAOPict0OaJwvFwp1WmfaqGAX
pkVFzK0heQV4LWBN74f728u0cEmev8joLBWX0QHaeZNF2IqMhZWWcMZ21xUNaDfj
KTO5h+5nA8FuaZgoRxbwWb5b1dM+SoCcUxYPUoweX2AOOOjR0DtGTboJv9xboIyH
7+qSZiXaEYbZXhgDSKbDlnT5ZyqiCvz5NCZa8nigShmWcbWVRAcyHVk9inPxRHOU
836JCYfR23YtFe7f8m5i92W9YKSda88e++tAcJ73TS5hdzNcXiaQvjmOkw/yV5qe
+ByTVFVoYLNJTNyie+xbTI6oFniUFRF1lw91kZH9c22joCfvgnHnmLLdLUcWqkMC
AwEAAaOCAXMwggFvMAkGA1UdEwQCMAAwLQYJYIZIAYb4QgENBCAWHkVhc3ktUlNB
IEdlbmVyYXRlZCBDZXJ0aWZpY2F0ZTAdBgNVHQ4EFgQUPPk0ucjFP23iwqW6NrzI
98feGyAwgd4GA1UdIwSB1jCB04AU3pwg6HuIm1ujcMh2vCcXostW0aKhgaSkgaEw
gZ4xCzAJBgNVBAYTAkNOMRAwDgYDVQQIEwdTaWNodWFuMRAwDgYDVQQHEwdDaGVu
Z2R1MQ8wDQYDVQQKEwZQZXJzb24xDzANBgNVBAsTBlBlcnNvbjESMBAGA1UEAxMJ
UGVyc29uIENBMRAwDgYDVQQpEwd2cG50aW5rMSMwIQYJKoZIhvcNAQkBFhR0YW56
aGVuZ3RhbmdAMTYzLmNvbYIUYsctd4FA/UW19xcRUKc179bJnmEwEwYDVR0lBAww
CgYIKwYBBQUHAwIwCwYDVR0PBAQDAgeAMBEGA1UdEQQKMAiCBmNsaW5ldDANBgkq
hkiG9w0BAQsFAAOCAQEAvmT9ip0QZ1iXLAUw3VKvDq/HCVlouYeliYVCtVxD/vkG
X0Zmt/CtNSuSLQkjojdmBPwlo56oDAWsimW+qEkOShuBW9py1IIcguKesZJZdWTv
JXdEUzVctCNz+s4S+U1Yevbh2BG/p3bjCUrNwaTkcYfhoMGJq35lOMgbJrx5nGRq
1fIL5mcfbGhIAWcorjkQ/hV/qrPk+DUzmDxF1npD1PwO+W0BFIyi6OQb+9dtjPTi
7sP64/evSVT/sLRYW3HWtG0edkf3WEy+bMRLu77+6hWCO0QQQIoOjLQq89PESsIO
K7NMANDL6hIzTeLp32WoIAckI3SjDArmFakzwlwgcA==
-----END CERTIFICATE-----
